
Memory Configuration

Name             Origin             Length             Attributes
FLASH            0x0000000008000000 0x0000000000010000 xr
SRAM             0x0000000020000000 0x0000000000005000 xrw
*default*        0x0000000000000000 0xffffffffffffffff

Linker script and memory map

LOAD /home/shrey_shah/Desktop/STM32/STM32F103C8T6/BareMetal/Src/adc.o
LOAD /home/shrey_shah/Desktop/STM32/STM32F103C8T6/BareMetal/Src/exti.o
LOAD /home/shrey_shah/Desktop/STM32/STM32F103C8T6/BareMetal/Src/gpio.o
LOAD /home/shrey_shah/Desktop/STM32/STM32F103C8T6/BareMetal/Src/gpt.o
LOAD /home/shrey_shah/Desktop/STM32/STM32F103C8T6/BareMetal/Src/pwm.o
LOAD /home/shrey_shah/Desktop/STM32/STM32F103C8T6/BareMetal/Src/rcc.o
LOAD /home/shrey_shah/Desktop/STM32/STM32F103C8T6/BareMetal/Src/systick.o
LOAD /home/shrey_shah/Desktop/STM32/STM32F103C8T6/BareMetal/Src/usart.o
LOAD ./Startup/stm32_startup.o
LOAD ./App_Src/main.o
                0x0000000020005000                __estack = (ORIGIN (SRAM) + LENGTH (SRAM))
                0x0000000000000200                __max_heap_size = 0x200
                0x0000000000000400                __max_stack_size = 0x400

.isr_vector     0x0000000008000000      0x130
                0x0000000008000000                . = ALIGN (0x4)
                0x0000000008000000                _svector = .
 *(.isr_vector)
 .isr_vector    0x0000000008000000      0x130 ./Startup/stm32_startup.o
                0x0000000008000000                vector_table
                0x0000000008000130                . = ALIGN (0x4)
                0x0000000008000130                _evector = .

.text           0x0000000008000130     0x2738
                0x0000000008000130                . = ALIGN (0x4)
                0x0000000008000130                _stext = .
 *(.text*)
 .text          0x0000000008000130      0x294 /home/shrey_shah/Desktop/STM32/STM32F103C8T6/BareMetal/Src/adc.o
                0x0000000008000130                config_ADC
                0x0000000008000388                get_ADC_data
 .text          0x00000000080003c4      0x3f4 /home/shrey_shah/Desktop/STM32/STM32F103C8T6/BareMetal/Src/exti.o
                0x00000000080003c4                config_EXTI_src
                0x00000000080004d8                config_EXTI_trig
                0x0000000008000560                config_EXTI
 .text          0x00000000080007b8      0x2dc /home/shrey_shah/Desktop/STM32/STM32F103C8T6/BareMetal/Src/gpio.o
                0x00000000080007b8                config_GPIO
                0x0000000008000a5a                get_GPIO
 .text          0x0000000008000a94      0x690 /home/shrey_shah/Desktop/STM32/STM32F103C8T6/BareMetal/Src/gpt.o
                0x0000000008000a94                config_GPT
                0x0000000008000f78                get_GPT_freq
                0x0000000008000fd4                GPT_delay_ms
 .text          0x0000000008001124      0x9d8 /home/shrey_shah/Desktop/STM32/STM32F103C8T6/BareMetal/Src/pwm.o
                0x0000000008001124                config_PWM
                0x0000000008001620                set_PWM_duty_cycle
                0x0000000008001894                set_PWM_duty_cycle_multi_channel
 .text          0x0000000008001afc      0x788 /home/shrey_shah/Desktop/STM32/STM32F103C8T6/BareMetal/Src/rcc.o
                0x0000000008001afc                get_clock_freq
                0x0000000008001c94                get_AHB_freq
                0x0000000008001d44                get_APB1_freq
                0x0000000008001dac                get_APB2_freq
                0x0000000008001fa0                config_SYSCLK_MHz
 .text          0x0000000008002284      0x11c /home/shrey_shah/Desktop/STM32/STM32F103C8T6/BareMetal/Src/systick.o
                0x0000000008002284                config_SysTick
                0x00000000080022ec                SysTick_delay_ms
                0x0000000008002314                get_curr_ticks
                0x0000000008002344                set_curr_ticks
                0x0000000008002368                SysTick_Handler
 .text          0x00000000080023a0      0x2f8 /home/shrey_shah/Desktop/STM32/STM32F103C8T6/BareMetal/Src/usart.o
                0x00000000080023a0                config_USART
                0x00000000080025e8                USART_putc
                0x0000000008002616                USART_puts
                0x0000000008002662                fputc
 .text          0x0000000008002698       0x4c ./Startup/stm32_startup.o
                0x0000000008002698                Reset_Handler
                0x00000000080026dc                RTC_Alarm_IRQHandler
                0x00000000080026dc                EXTI2_IRQHandler
                0x00000000080026dc                TIM8_TRG_COM_IRQHandler
                0x00000000080026dc                TIM8_CC_IRQHandler
                0x00000000080026dc                DebugMon_Handler
                0x00000000080026dc                TIM1_CC_IRQHandler
                0x00000000080026dc                HardFault_Handler
                0x00000000080026dc                TIM6_IRQHandler
                0x00000000080026dc                PVD_IRQHandler
                0x00000000080026dc                SDIO_IRQHandler
                0x00000000080026dc                PendSV_Handler
                0x00000000080026dc                NMI_Handler
                0x00000000080026dc                EXTI3_IRQHandler
                0x00000000080026dc                USB_HP_CAN_TX_IRQHandler
                0x00000000080026dc                EXTI0_IRQHandler
                0x00000000080026dc                I2C2_EV_IRQHandler
                0x00000000080026dc                UsageFault_Handler
                0x00000000080026dc                ADC1_2_IRQHandler
                0x00000000080026dc                SPI1_IRQHandler
                0x00000000080026dc                CAN_SCE_IRQHandler
                0x00000000080026dc                TAMPER_IRQHandler
                0x00000000080026dc                TIM8_UP_IRQHandler
                0x00000000080026dc                DMA2_Channel2_IRQHandler
                0x00000000080026dc                DMA1_Channel4_IRQHandler
                0x00000000080026dc                USART3_IRQHandler
                0x00000000080026dc                RTC_IRQHandler
                0x00000000080026dc                DMA1_Channel7_IRQHandler
                0x00000000080026dc                UART5_IRQHandler
                0x00000000080026dc                ADC3_IRQHandler
                0x00000000080026dc                TIM4_IRQHandler
                0x00000000080026dc                CAN_RX1_IRQHandler
                0x00000000080026dc                DMA2_Channel1_IRQHandler
                0x00000000080026dc                I2C1_EV_IRQHandler
                0x00000000080026dc                DMA1_Channel6_IRQHandler
                0x00000000080026dc                UART4_IRQHandler
                0x00000000080026dc                TIM3_IRQHandler
                0x00000000080026dc                RCC_IRQHandler
                0x00000000080026dc                TIM1_TRG_COM_IRQHandler
                0x00000000080026dc                DMA1_Channel1_IRQHandler
                0x00000000080026dc                Default_Handler
                0x00000000080026dc                EXTI15_10_IRQHandler
                0x00000000080026dc                TIM7_IRQHandler
                0x00000000080026dc                TIM5_IRQHandler
                0x00000000080026dc                EXTI9_5_IRQHandler
                0x00000000080026dc                SPI2_IRQHandler
                0x00000000080026dc                USB_LP_CAN_RX0_IRQHandler
                0x00000000080026dc                MemManage_Handler
                0x00000000080026dc                SVC_Handler
                0x00000000080026dc                DMA1_Channel5_IRQHandler
                0x00000000080026dc                EXTI4_IRQHandler
                0x00000000080026dc                DMA1_Channel3_IRQHandler
                0x00000000080026dc                FSMC_IRQHandler
                0x00000000080026dc                TIM1_UP_IRQHandler
                0x00000000080026dc                WWDG_IRQHandler
                0x00000000080026dc                TIM2_IRQHandler
                0x00000000080026dc                TIM1_BRK_IRQHandler
                0x00000000080026dc                EXTI1_IRQHandler
                0x00000000080026dc                DMA2_Channel4_5_IRQHandler
                0x00000000080026dc                USART2_IRQHandler
                0x00000000080026dc                I2C2_ER_IRQHandler
                0x00000000080026dc                DMA1_Channel2_IRQHandler
                0x00000000080026dc                TIM8_BRK_IRQHandler
                0x00000000080026dc                FLASH_IRQHandler
                0x00000000080026dc                BusFault_Handler
                0x00000000080026dc                USART1_IRQHandler
                0x00000000080026dc                SPI3_IRQHandler
                0x00000000080026dc                I2C1_ER_IRQHandler
                0x00000000080026dc                DMA2_Channel3_IRQHandler
 .text          0x00000000080026e4      0x184 ./App_Src/main.o
                0x00000000080026e4                main
                0x0000000008002868                . = ALIGN (0x4)
                0x0000000008002868                _etext = .

.glue_7         0x0000000008002868        0x0
 .glue_7        0x0000000008002868        0x0 linker stubs

.glue_7t        0x0000000008002868        0x0
 .glue_7t       0x0000000008002868        0x0 linker stubs

.vfp11_veneer   0x0000000008002868        0x0
 .vfp11_veneer  0x0000000008002868        0x0 linker stubs

.v4_bx          0x0000000008002868        0x0
 .v4_bx         0x0000000008002868        0x0 linker stubs

.iplt           0x0000000008002868        0x0
 .iplt          0x0000000008002868        0x0 /home/shrey_shah/Desktop/STM32/STM32F103C8T6/BareMetal/Src/adc.o

.rodata         0x0000000008002868       0x48
                0x0000000008002868                . = ALIGN (0x4)
                0x0000000008002868                _srodata = .
 *(.rodata*)
 .rodata        0x0000000008002868       0x45 ./App_Src/main.o
                0x00000000080028b0                . = ALIGN (0x4)
 *fill*         0x00000000080028ad        0x3 
                0x00000000080028b0                _erodata = .

.rel.dyn        0x00000000080028b0        0x0
 .rel.iplt      0x00000000080028b0        0x0 /home/shrey_shah/Desktop/STM32/STM32F103C8T6/BareMetal/Src/adc.o

.data           0x0000000020000000       0x6c load address 0x00000000080028b0
                0x0000000020000000                . = ALIGN (0x4)
                0x0000000020000000                _sdata = .
 *(.data*)
 .data          0x0000000020000000        0x8 /home/shrey_shah/Desktop/STM32/STM32F103C8T6/BareMetal/Src/adc.o
 .data          0x0000000020000008        0x8 /home/shrey_shah/Desktop/STM32/STM32F103C8T6/BareMetal/Src/exti.o
 .data          0x0000000020000010        0x8 /home/shrey_shah/Desktop/STM32/STM32F103C8T6/BareMetal/Src/gpio.o
 .data          0x0000000020000018        0x8 /home/shrey_shah/Desktop/STM32/STM32F103C8T6/BareMetal/Src/gpt.o
 .data          0x0000000020000020        0x8 /home/shrey_shah/Desktop/STM32/STM32F103C8T6/BareMetal/Src/pwm.o
 .data          0x0000000020000028       0x10 /home/shrey_shah/Desktop/STM32/STM32F103C8T6/BareMetal/Src/rcc.o
                0x0000000020000028                CoreClock
                0x000000002000002c                AHBClock
                0x0000000020000030                APB1Clock
                0x0000000020000034                APB2Clock
 .data          0x0000000020000038        0x0 /home/shrey_shah/Desktop/STM32/STM32F103C8T6/BareMetal/Src/systick.o
 .data          0x0000000020000038        0x8 /home/shrey_shah/Desktop/STM32/STM32F103C8T6/BareMetal/Src/usart.o
 .data          0x0000000020000040        0x0 ./Startup/stm32_startup.o
 .data          0x0000000020000040       0x2c ./App_Src/main.o
                0x0000000020000048                usart_tx_config
                0x0000000020000050                usart_rx_config
                0x0000000020000058                usart_config
                0x0000000020000068                string
                0x000000002000006c                . = ALIGN (0x4)
                0x000000002000006c                _edata = .
                0x00000000080028b0                _sidata = LOADADDR (.data)

.igot.plt       0x000000002000006c        0x0 load address 0x000000000800291c
 .igot.plt      0x000000002000006c        0x0 /home/shrey_shah/Desktop/STM32/STM32F103C8T6/BareMetal/Src/adc.o

.bss            0x0000000020000070       0x10 load address 0x000000000800291c
                0x0000000020000070                . = ALIGN (0x4)
                0x0000000020000070                _sbss = .
 *(.bss*)
 .bss           0x0000000020000070        0x0 /home/shrey_shah/Desktop/STM32/STM32F103C8T6/BareMetal/Src/adc.o
 .bss           0x0000000020000070        0x0 /home/shrey_shah/Desktop/STM32/STM32F103C8T6/BareMetal/Src/exti.o
 .bss           0x0000000020000070        0x0 /home/shrey_shah/Desktop/STM32/STM32F103C8T6/BareMetal/Src/gpio.o
 .bss           0x0000000020000070        0x0 /home/shrey_shah/Desktop/STM32/STM32F103C8T6/BareMetal/Src/gpt.o
 .bss           0x0000000020000070        0x0 /home/shrey_shah/Desktop/STM32/STM32F103C8T6/BareMetal/Src/pwm.o
 .bss           0x0000000020000070        0x0 /home/shrey_shah/Desktop/STM32/STM32F103C8T6/BareMetal/Src/rcc.o
 .bss           0x0000000020000070       0x10 /home/shrey_shah/Desktop/STM32/STM32F103C8T6/BareMetal/Src/systick.o
 .bss           0x0000000020000080        0x0 /home/shrey_shah/Desktop/STM32/STM32F103C8T6/BareMetal/Src/usart.o
 .bss           0x0000000020000080        0x0 ./Startup/stm32_startup.o
 .bss           0x0000000020000080        0x0 ./App_Src/main.o
                0x0000000020000080                . = ALIGN (0x4)
                0x0000000020000080                _ebss = .
OUTPUT(./Linker/stm32_ls.elf elf32-littlearm)
LOAD linker stubs

.comment        0x0000000000000000       0x33
 .comment       0x0000000000000000       0x33 /home/shrey_shah/Desktop/STM32/STM32F103C8T6/BareMetal/Src/adc.o
                                         0x34 (size before relaxing)
 .comment       0x0000000000000033       0x34 /home/shrey_shah/Desktop/STM32/STM32F103C8T6/BareMetal/Src/exti.o
 .comment       0x0000000000000033       0x34 /home/shrey_shah/Desktop/STM32/STM32F103C8T6/BareMetal/Src/gpio.o
 .comment       0x0000000000000033       0x34 /home/shrey_shah/Desktop/STM32/STM32F103C8T6/BareMetal/Src/gpt.o
 .comment       0x0000000000000033       0x34 /home/shrey_shah/Desktop/STM32/STM32F103C8T6/BareMetal/Src/pwm.o
 .comment       0x0000000000000033       0x34 /home/shrey_shah/Desktop/STM32/STM32F103C8T6/BareMetal/Src/rcc.o
 .comment       0x0000000000000033       0x34 /home/shrey_shah/Desktop/STM32/STM32F103C8T6/BareMetal/Src/systick.o
 .comment       0x0000000000000033       0x34 /home/shrey_shah/Desktop/STM32/STM32F103C8T6/BareMetal/Src/usart.o
 .comment       0x0000000000000033       0x34 ./Startup/stm32_startup.o
 .comment       0x0000000000000033       0x34 ./App_Src/main.o

.ARM.attributes
                0x0000000000000000       0x2d
 .ARM.attributes
                0x0000000000000000       0x2d /home/shrey_shah/Desktop/STM32/STM32F103C8T6/BareMetal/Src/adc.o
 .ARM.attributes
                0x000000000000002d       0x2d /home/shrey_shah/Desktop/STM32/STM32F103C8T6/BareMetal/Src/exti.o
 .ARM.attributes
                0x000000000000005a       0x2d /home/shrey_shah/Desktop/STM32/STM32F103C8T6/BareMetal/Src/gpio.o
 .ARM.attributes
                0x0000000000000087       0x2d /home/shrey_shah/Desktop/STM32/STM32F103C8T6/BareMetal/Src/gpt.o
 .ARM.attributes
                0x00000000000000b4       0x2d /home/shrey_shah/Desktop/STM32/STM32F103C8T6/BareMetal/Src/pwm.o
 .ARM.attributes
                0x00000000000000e1       0x2d /home/shrey_shah/Desktop/STM32/STM32F103C8T6/BareMetal/Src/rcc.o
 .ARM.attributes
                0x000000000000010e       0x2d /home/shrey_shah/Desktop/STM32/STM32F103C8T6/BareMetal/Src/systick.o
 .ARM.attributes
                0x000000000000013b       0x2d /home/shrey_shah/Desktop/STM32/STM32F103C8T6/BareMetal/Src/usart.o
 .ARM.attributes
                0x0000000000000168       0x2d ./Startup/stm32_startup.o
 .ARM.attributes
                0x0000000000000195       0x2d ./App_Src/main.o
